target datalayout = "e-m:e-p270:32:32-p271:32:32-p272:64:64-i64:64-i128:128-f80:128-n8:16:32:64-S128"
target triple = "x86_64-pc-linux-gnu"

%struct.GetBitContext = type { ptr, ptr, i32, i32, i32 }

; Function Attrs: alwaysinline nounwind willreturn memory(none) uwtable
define internal i32 @av_bswap32(i32 noundef %0) #7 {
  %2 = alloca i32, align 4
  store i32 %0, ptr %2, align 4, !tbaa !58
  %3 = load i32, ptr %2, align 4, !tbaa !58
  %4 = shl i32 %3, 8
  %5 = and i32 %4, 65280
  %6 = load i32, ptr %2, align 4, !tbaa !58
  %7 = lshr i32 %6, 8
  %8 = and i32 %7, 255
  %9 = or i32 %5, %8
  %10 = shl i32 %9, 16
  %11 = load i32, ptr %2, align 4, !tbaa !58
  %12 = lshr i32 %11, 16
  %13 = shl i32 %12, 8
  %14 = and i32 %13, 65280
  %15 = load i32, ptr %2, align 4, !tbaa !58
  %16 = lshr i32 %15, 16
  %17 = lshr i32 %16, 8
  %18 = and i32 %17, 255
  %19 = or i32 %14, %18
  %20 = or i32 %10, %19
  ret i32 %20
}

; Function Attrs: inlinehint nounwind uwtable
define internal i32 @get_bits(ptr noundef %0, i32 noundef %1) #5 {
  %3 = alloca ptr, align 8
  %4 = alloca i32, align 4
  %5 = alloca i32, align 4
  %6 = alloca i32, align 4
  %7 = alloca i32, align 4
  %8 = alloca i32, align 4
  store ptr %0, ptr %3, align 8, !tbaa !52
  store i32 %1, ptr %4, align 4, !tbaa !58
  call void @llvm.lifetime.start.p0(i64 4, ptr %5) #9
  call void @llvm.lifetime.start.p0(i64 4, ptr %6) #9
  %9 = load ptr, ptr %3, align 8, !tbaa !52
  %10 = getelementptr inbounds nuw %struct.GetBitContext, ptr %9, i32 0, i32 2
  %11 = load i32, ptr %10, align 8, !tbaa !76
  store i32 %11, ptr %6, align 4, !tbaa !58
  call void @llvm.lifetime.start.p0(i64 4, ptr %7) #9
  call void @llvm.lifetime.start.p0(i64 4, ptr %8) #9
  %12 = load ptr, ptr %3, align 8, !tbaa !52
  %13 = getelementptr inbounds nuw %struct.GetBitContext, ptr %12, i32 0, i32 4
  %14 = load i32, ptr %13, align 8, !tbaa !77
  store i32 %14, ptr %8, align 4, !tbaa !58
  %15 = load ptr, ptr %3, align 8, !tbaa !52
  %16 = getelementptr inbounds nuw %struct.GetBitContext, ptr %15, i32 0, i32 0
  %17 = load ptr, ptr %16, align 8, !tbaa !131
  %18 = load i32, ptr %6, align 4, !tbaa !58
  %19 = lshr i32 %18, 3
  %20 = zext i32 %19 to i64
  %21 = getelementptr inbounds nuw i8, ptr %17, i64 %20
  %22 = load i32, ptr %21, align 1, !tbaa !33
  %23 = call i32 @av_bswap32(i32 noundef %22) #10
  %24 = load i32, ptr %6, align 4, !tbaa !58
  %25 = and i32 %24, 7
  %26 = shl i32 %23, %25
  %27 = lshr i32 %26, 0
  store i32 %27, ptr %7, align 4, !tbaa !58
  %28 = load i32, ptr %7, align 4, !tbaa !58
  %29 = load i32, ptr %4, align 4, !tbaa !58
  %30 = sub nsw i32 32, %29
  %31 = lshr i32 %28, %30
  store i32 %31, ptr %5, align 4, !tbaa !58
  %32 = load i32, ptr %8, align 4, !tbaa !58
  %33 = load i32, ptr %6, align 4, !tbaa !58
  %34 = load i32, ptr %4, align 4, !tbaa !58
  %35 = add i32 %33, %34
  %36 = icmp ugt i32 %32, %35
  br i1 %36, label %37, label %41

37:                                               ; preds = %2
  %38 = load i32, ptr %6, align 4, !tbaa !58
  %39 = load i32, ptr %4, align 4, !tbaa !58
  %40 = add i32 %38, %39
  br label %43

41:                                               ; preds = %2
  %42 = load i32, ptr %8, align 4, !tbaa !58
  br label %43

43:                                               ; preds = %41, %37
  %44 = phi i32 [ %40, %37 ], [ %42, %41 ]
  store i32 %44, ptr %6, align 4, !tbaa !58
  %45 = load i32, ptr %6, align 4, !tbaa !58
  %46 = load ptr, ptr %3, align 8, !tbaa !52
  %47 = getelementptr inbounds nuw %struct.GetBitContext, ptr %46, i32 0, i32 2
  store i32 %45, ptr %47, align 8, !tbaa !76
  %48 = load i32, ptr %5, align 4, !tbaa !58
  call void @llvm.lifetime.end.p0(i64 4, ptr %8) #9
  call void @llvm.lifetime.end.p0(i64 4, ptr %7) #9
  call void @llvm.lifetime.end.p0(i64 4, ptr %6) #9
  call void @llvm.lifetime.end.p0(i64 4, ptr %5) #9
  ret i32 %48
}

; Function Attrs: inlinehint nounwind uwtable
define internal i32 @get_bits1(ptr noundef %0) #5 {
  %2 = alloca ptr, align 8
  %3 = alloca i32, align 4
  %4 = alloca i8, align 1
  store ptr %0, ptr %2, align 8, !tbaa !52
  call void @llvm.lifetime.start.p0(i64 4, ptr %3) #9
  %5 = load ptr, ptr %2, align 8, !tbaa !52
  %6 = getelementptr inbounds nuw %struct.GetBitContext, ptr %5, i32 0, i32 2
  %7 = load i32, ptr %6, align 8, !tbaa !76
  store i32 %7, ptr %3, align 4, !tbaa !58
  call void @llvm.lifetime.start.p0(i64 1, ptr %4) #9
  %8 = load ptr, ptr %2, align 8, !tbaa !52
  %9 = getelementptr inbounds nuw %struct.GetBitContext, ptr %8, i32 0, i32 0
  %10 = load ptr, ptr %9, align 8, !tbaa !131
  %11 = load i32, ptr %3, align 4, !tbaa !58
  %12 = lshr i32 %11, 3
  %13 = zext i32 %12 to i64
  %14 = getelementptr inbounds nuw i8, ptr %10, i64 %13
  %15 = load i8, ptr %14, align 1, !tbaa !33
  store i8 %15, ptr %4, align 1, !tbaa !33
  %16 = load i32, ptr %3, align 4, !tbaa !58
  %17 = and i32 %16, 7
  %18 = load i8, ptr %4, align 1, !tbaa !33
  %19 = zext i8 %18 to i32
  %20 = shl i32 %19, %17
  %21 = trunc i32 %20 to i8
  store i8 %21, ptr %4, align 1, !tbaa !33
  %22 = load i8, ptr %4, align 1, !tbaa !33
  %23 = zext i8 %22 to i32
  %24 = ashr i32 %23, 7
  %25 = trunc i32 %24 to i8
  store i8 %25, ptr %4, align 1, !tbaa !33
  %26 = load ptr, ptr %2, align 8, !tbaa !52
  %27 = getelementptr inbounds nuw %struct.GetBitContext, ptr %26, i32 0, i32 2
  %28 = load i32, ptr %27, align 8, !tbaa !76
  %29 = load ptr, ptr %2, align 8, !tbaa !52
  %30 = getelementptr inbounds nuw %struct.GetBitContext, ptr %29, i32 0, i32 4
  %31 = load i32, ptr %30, align 8, !tbaa !77
  %32 = icmp slt i32 %28, %31
  br i1 %32, label %33, label %36

33:                                               ; preds = %1
  %34 = load i32, ptr %3, align 4, !tbaa !58
  %35 = add i32 %34, 1
  store i32 %35, ptr %3, align 4, !tbaa !58
  br label %36

36:                                               ; preds = %33, %1
  %37 = load i32, ptr %3, align 4, !tbaa !58
  %38 = load ptr, ptr %2, align 8, !tbaa !52
  %39 = getelementptr inbounds nuw %struct.GetBitContext, ptr %38, i32 0, i32 2
  store i32 %37, ptr %39, align 8, !tbaa !76
  %40 = load i8, ptr %4, align 1, !tbaa !33
  %41 = zext i8 %40 to i32
  call void @llvm.lifetime.end.p0(i64 1, ptr %4) #9
  call void @llvm.lifetime.end.p0(i64 4, ptr %3) #9
  ret i32 %41
}

; Function Attrs: inlinehint nounwind uwtable
define internal i32 @get_bits_count(ptr noundef %0) #5 {
  %2 = alloca ptr, align 8
  store ptr %0, ptr %2, align 8, !tbaa !52
  %3 = load ptr, ptr %2, align 8, !tbaa !52
  %4 = getelementptr inbounds nuw %struct.GetBitContext, ptr %3, i32 0, i32 2
  %5 = load i32, ptr %4, align 8, !tbaa !76
  ret i32 %5
}

; Function Attrs: inlinehint nounwind uwtable
define internal i32 @get_bits_long(ptr noundef %0, i32 noundef %1) #5 {
  %3 = alloca i32, align 4
  %4 = alloca ptr, align 8
  %5 = alloca i32, align 4
  %6 = alloca i32, align 4
  store ptr %0, ptr %4, align 8, !tbaa !52
  store i32 %1, ptr %5, align 4, !tbaa !58
  %7 = load i32, ptr %5, align 4, !tbaa !58
  %8 = icmp ne i32 %7, 0
  br i1 %8, label %10, label %9

9:                                                ; preds = %2
  store i32 0, ptr %3, align 4
  br label %29

10:                                               ; preds = %2
  %11 = load i32, ptr %5, align 4, !tbaa !58
  %12 = icmp sle i32 %11, 25
  br i1 %12, label %13, label %17

13:                                               ; preds = %10
  %14 = load ptr, ptr %4, align 8, !tbaa !52
  %15 = load i32, ptr %5, align 4, !tbaa !58
  %16 = call i32 @get_bits(ptr noundef %14, i32 noundef %15)
  store i32 %16, ptr %3, align 4
  br label %29

17:                                               ; preds = %10
  call void @llvm.lifetime.start.p0(i64 4, ptr %6) #9
  %18 = load ptr, ptr %4, align 8, !tbaa !52
  %19 = call i32 @get_bits(ptr noundef %18, i32 noundef 16)
  %20 = load i32, ptr %5, align 4, !tbaa !58
  %21 = sub nsw i32 %20, 16
  %22 = shl i32 %19, %21
  store i32 %22, ptr %6, align 4, !tbaa !58
  %23 = load i32, ptr %6, align 4, !tbaa !58
  %24 = load ptr, ptr %4, align 8, !tbaa !52
  %25 = load i32, ptr %5, align 4, !tbaa !58
  %26 = sub nsw i32 %25, 16
  %27 = call i32 @get_bits(ptr noundef %24, i32 noundef %26)
  %28 = or i32 %23, %27
  store i32 %28, ptr %3, align 4
  call void @llvm.lifetime.end.p0(i64 4, ptr %6) #9
  br label %29

29:                                               ; preds = %17, %13, %9
  %30 = load i32, ptr %3, align 4
  ret i32 %30
}

; Function Attrs: inlinehint nounwind uwtable
define internal i32 @get_unary(ptr noundef %0, i32 noundef %1, i32 noundef %2) #5 {
  %4 = alloca ptr, align 8
  %5 = alloca i32, align 4
  %6 = alloca i32, align 4
  %7 = alloca i32, align 4
  store ptr %0, ptr %4, align 8, !tbaa !52
  store i32 %1, ptr %5, align 4, !tbaa !58
  store i32 %2, ptr %6, align 4, !tbaa !58
  call void @llvm.lifetime.start.p0(i64 4, ptr %7) #9
  store i32 0, ptr %7, align 4, !tbaa !58
  br label %8

8:                                                ; preds = %20, %3
  %9 = load i32, ptr %7, align 4, !tbaa !58
  %10 = load i32, ptr %6, align 4, !tbaa !58
  %11 = icmp slt i32 %9, %10
  br i1 %11, label %12, label %17

12:                                               ; preds = %8
  %13 = load ptr, ptr %4, align 8, !tbaa !52
  %14 = call i32 @get_bits1(ptr noundef %13)
  %15 = load i32, ptr %5, align 4, !tbaa !58
  %16 = icmp ne i32 %14, %15
  br label %17

17:                                               ; preds = %12, %8
  %18 = phi i1 [ false, %8 ], [ %16, %12 ]
  br i1 %18, label %19, label %23

19:                                               ; preds = %17
  br label %20

20:                                               ; preds = %19
  %21 = load i32, ptr %7, align 4, !tbaa !58
  %22 = add nsw i32 %21, 1
  store i32 %22, ptr %7, align 4, !tbaa !58
  br label %8, !llvm.loop !138

23:                                               ; preds = %17
  %24 = load i32, ptr %7, align 4, !tbaa !58
  call void @llvm.lifetime.end.p0(i64 4, ptr %7) #9
  ret i32 %24
}

; Function Attrs: inlinehint nounwind uwtable
define internal i32 @get_bits_left(ptr noundef %0) #5 {
  %2 = alloca ptr, align 8
  store ptr %0, ptr %2, align 8, !tbaa !52
  %3 = load ptr, ptr %2, align 8, !tbaa !52
  %4 = getelementptr inbounds nuw %struct.GetBitContext, ptr %3, i32 0, i32 3
  %5 = load i32, ptr %4, align 4, !tbaa !132
  %6 = load ptr, ptr %2, align 8, !tbaa !52
  %7 = call i32 @get_bits_count(ptr noundef %6)
  %8 = sub nsw i32 %5, %7
  ret i32 %8
}

; Function Attrs: nounwind uwtable
define internal i32 @get_urice(ptr noundef %0, i32 noundef %1) #1 {
  %3 = alloca ptr, align 8
  %4 = alloca i32, align 4
  %5 = alloca i32, align 4
  %6 = alloca i32, align 4
  %7 = alloca i32, align 4
  store ptr %0, ptr %3, align 8, !tbaa !52
  store i32 %1, ptr %4, align 4, !tbaa !58
  call void @llvm.lifetime.start.p0(i64 4, ptr %5) #9
  %8 = load ptr, ptr %3, align 8, !tbaa !52
  %9 = load ptr, ptr %3, align 8, !tbaa !52
  %10 = call i32 @get_bits_left(ptr noundef %9)
  %11 = call i32 @get_unary(ptr noundef %8, i32 noundef 1, i32 noundef %10)
  store i32 %11, ptr %5, align 4, !tbaa !58
  call void @llvm.lifetime.start.p0(i64 4, ptr %6) #9
  %12 = load ptr, ptr %3, align 8, !tbaa !52
  %13 = load i32, ptr %4, align 4, !tbaa !58
  %14 = call i32 @get_bits_long(ptr noundef %12, i32 noundef %13)
  store i32 %14, ptr %6, align 4, !tbaa !58
  call void @llvm.lifetime.start.p0(i64 4, ptr %7) #9
  %15 = load i32, ptr %5, align 4, !tbaa !58
  %16 = load i32, ptr %4, align 4, !tbaa !58
  %17 = shl i32 %15, %16
  %18 = load i32, ptr %6, align 4, !tbaa !58
  %19 = or i32 %17, %18
  store i32 %19, ptr %7, align 4, !tbaa !58
  %20 = load i32, ptr %7, align 4, !tbaa !58
  call void @llvm.lifetime.end.p0(i64 4, ptr %7) #9
  call void @llvm.lifetime.end.p0(i64 4, ptr %6) #9
  call void @llvm.lifetime.end.p0(i64 4, ptr %5) #9
  ret i32 %20
}

; Function Attrs: nounwind uwtable
define internal i32 @get_srice(ptr noundef %0, i32 noundef %1) #1 {
  %3 = alloca ptr, align 8
  %4 = alloca i32, align 4
  %5 = alloca i32, align 4
  store ptr %0, ptr %3, align 8, !tbaa !52
  store i32 %1, ptr %4, align 4, !tbaa !58
  call void @llvm.lifetime.start.p0(i64 4, ptr %5) #9
  %6 = load ptr, ptr %3, align 8, !tbaa !52
  %7 = load i32, ptr %4, align 4, !tbaa !58
  %8 = call i32 @get_urice(ptr noundef %6, i32 noundef %7)
  store i32 %8, ptr %5, align 4, !tbaa !58
  %9 = load i32, ptr %5, align 4, !tbaa !58
  %10 = and i32 %9, 1
  %11 = icmp ne i32 %10, 0
  br i1 %11, label %12, label %16

12:                                               ; preds = %2
  %13 = load i32, ptr %5, align 4, !tbaa !58
  %14 = lshr i32 %13, 1
  %15 = xor i32 %14, -1
  br label %19

16:                                               ; preds = %2
  %17 = load i32, ptr %5, align 4, !tbaa !58
  %18 = lshr i32 %17, 1
  br label %19

19:                                               ; preds = %16, %12
  %20 = phi i32 [ %15, %12 ], [ %18, %16 ]
  call void @llvm.lifetime.end.p0(i64 4, ptr %5) #9
  ret i32 %20
}