; Function Attrs: nofree norecurse nosync nounwind memory(read, argmem: readwrite, inaccessiblemem: none) uwtable
define internal fastcc i32 @get_srice(ptr noundef captures(none) %0, i32 noundef %1) unnamed_addr #4 {
  %3 = getelementptr i8, ptr %0, i64 16
  %.val.i = load i32, ptr %3, align 8, !tbaa !54
  %4 = getelementptr i8, ptr %0, i64 20
  %.val7.i = load i32, ptr %4, align 4, !tbaa !51
  %5 = sub nsw i32 %.val7.i, %.val.i
  %6 = icmp sgt i32 %5, 0
  br i1 %6, label %.lr.ph.i.i, label %get_unary.exit.i

.lr.ph.i.i:                                       ; preds = %2
  %7 = load ptr, ptr %0, align 8, !tbaa !50
  %8 = getelementptr inbounds nuw i8, ptr %0, i64 24
  %9 = load i32, ptr %8, align 8, !tbaa !52
  br label %10

10:                                               ; preds = %21, %.lr.ph.i.i
  %spec.select.i8.i.i = phi i32 [ %.val.i, %.lr.ph.i.i ], [ %spec.select.i.i.i, %21 ]
  %.05.i.i = phi i32 [ 0, %.lr.ph.i.i ], [ %22, %21 ]
  %11 = lshr i32 %spec.select.i8.i.i, 3
  %12 = zext nneg i32 %11 to i64
  %13 = getelementptr inbounds nuw i8, ptr %7, i64 %12
  %14 = load i8, ptr %13, align 1, !tbaa !29
  %15 = icmp slt i32 %spec.select.i8.i.i, %9
  %16 = zext i1 %15 to i32
  %spec.select.i.i.i = add i32 %spec.select.i8.i.i, %16
  %17 = zext i8 %14 to i32
  %18 = and i32 %spec.select.i8.i.i, 7
  store i32 %spec.select.i.i.i, ptr %3, align 8, !tbaa !54
  %19 = lshr exact i32 128, %18
  %20 = and i32 %19, %17
  %.not.not.i.i = icmp eq i32 %20, 0
  br i1 %.not.not.i.i, label %21, label %get_unary.exit.i

21:                                               ; preds = %10
  %22 = add nuw nsw i32 %.05.i.i, 1
  %exitcond.not.i.i = icmp eq i32 %22, %5
  br i1 %exitcond.not.i.i, label %get_unary.exit.i, label %10, !llvm.loop !56

get_unary.exit.i:                                 ; preds = %21, %10, %2
  %23 = phi i32 [ %.val.i, %2 ], [ %spec.select.i.i.i, %10 ], [ %spec.select.i.i.i, %21 ]
  %.0.lcssa.i.i = phi i32 [ 0, %2 ], [ %5, %21 ], [ %.05.i.i, %10 ]
  %.not.i.i = icmp eq i32 %1, 0
  br i1 %.not.i.i, label %get_urice.exit, label %24

24:                                               ; preds = %get_unary.exit.i
  %25 = icmp slt i32 %1, 26
  %26 = getelementptr inbounds nuw i8, ptr %0, i64 24
  %27 = load i32, ptr %26, align 8, !tbaa !52
  %28 = load ptr, ptr %0, align 8, !tbaa !50
  %29 = lshr i32 %23, 3
  %30 = zext nneg i32 %29 to i64
  %31 = getelementptr inbounds nuw i8, ptr %28, i64 %30
  %32 = load i32, ptr %31, align 1, !tbaa !29
  %33 = tail call i32 @llvm.bswap.i32(i32 %32)
  %34 = and i32 %23, 7
  %35 = shl i32 %33, %34
  br i1 %25, label %36, label %41

36:                                               ; preds = %24
  %37 = sub nsw i32 32, %1
  %38 = lshr i32 %35, %37
  %39 = add i32 %23, %1
  %40 = tail call i32 @llvm.umin.i32(i32 %27, i32 %39)
  store i32 %40, ptr %3, align 8, !tbaa !54
  br label %get_urice.exit

41:                                               ; preds = %24
  %42 = lshr i32 %35, 16
  %43 = add i32 %23, 16
  %44 = tail call i32 @llvm.umin.i32(i32 %27, i32 %43)
  store i32 %44, ptr %3, align 8, !tbaa !54
  %45 = add nsw i32 %1, -16
  %46 = shl i32 %42, %45
  %47 = lshr i32 %44, 3
  %48 = zext nneg i32 %47 to i64
  %49 = getelementptr inbounds nuw i8, ptr %28, i64 %48
  %50 = load i32, ptr %49, align 1, !tbaa !29
  %51 = tail call i32 @llvm.bswap.i32(i32 %50)
  %52 = and i32 %44, 7
  %53 = shl i32 %51, %52
  %54 = sub nsw i32 48, %1
  %55 = lshr i32 %53, %54
  %56 = add i32 %44, %45
  %57 = tail call i32 @llvm.umin.i32(i32 %27, i32 %56)
  store i32 %57, ptr %3, align 8, !tbaa !54
  %58 = or i32 %55, %46
  br label %get_urice.exit

get_urice.exit:                                   ; preds = %get_unary.exit.i, %36, %41
  %.0.i.i = phi i32 [ %38, %36 ], [ %58, %41 ], [ 0, %get_unary.exit.i ]
  %59 = shl i32 %.0.lcssa.i.i, %1
  %60 = or i32 %.0.i.i, %59
  %61 = lshr i32 %60, 1
  %62 = and i32 %60, 1
  %sext = sub nsw i32 0, %62
  %63 = xor i32 %61, %sext
  ret i32 %63
}